target datalayout = "e-m:e-p270:32:32-p271:32:32-p272:64:64-i64:64-i128:128-f80:128-n8:16:32:64-S128"
target triple = "x86_64-pc-linux-gnu"

%struct.RelationData = type { %struct.RelFileLocator, ptr, i32, i32, i8, i8, i8, i8, i8, i32, i32, i32, i32, ptr, ptr, i32, %struct.LockInfoData, ptr, ptr, ptr, ptr, ptr, i8, ptr, ptr, ptr, ptr, ptr, ptr, i32, ptr, i8, ptr, ptr, i32, i8, i32, ptr, i8, ptr, ptr, ptr, ptr, ptr, ptr, ptr, i32, ptr, ptr, ptr, ptr, ptr, ptr, ptr, ptr, ptr, ptr, ptr, ptr, ptr, ptr, ptr, ptr, ptr, ptr, ptr, i32, i8, ptr }
%struct.RelFileLocator = type { i32, i32, i32 }
%struct.LockInfoData = type { %struct.LockRelId }
%struct.LockRelId = type { i32, i32 }
%struct.IndexScanDescData = type { ptr, ptr, ptr, i32, i32, ptr, ptr, i8, i8, i8, i8, i8, ptr, ptr, ptr, ptr, ptr, %struct.ItemPointerData, i8, ptr, i8, ptr, ptr, i8, ptr }
%struct.ItemPointerData = type { %struct.BlockIdData, i16 }
%struct.BlockIdData = type { i16, i16 }
%struct.TableAmRoutine = type { i32, ptr, ptr, ptr, ptr, ptr, ptr, ptr, ptr, ptr, ptr, ptr, ptr, ptr, ptr, ptr, ptr, ptr, ptr, ptr, ptr, ptr, ptr, ptr, ptr, ptr, ptr, ptr, ptr, ptr, ptr, ptr, ptr, ptr, ptr, ptr, ptr, ptr, ptr, ptr, ptr, ptr, ptr, ptr, ptr, ptr }
%struct.IndexFetchTableData = type { ptr }
%struct.PgStat_TableStatus = type { i32, i8, ptr, %struct.PgStat_TableCounts, ptr }
%struct.PgStat_TableCounts = type { i64, i64, i64, i64, i64, i64, i64, i64, i8, i64, i64, i64, i64, i64 }

@CheckXidAlive = external global i32, align 4
@bsysscan = external global i8, align 1
@.str.17 = private unnamed_addr constant [64 x i8] c"unexpected table_index_fetch_tuple call during logical decoding\00", align 1
@.str.18 = private unnamed_addr constant [41 x i8] c"../../../../src/include/access/tableam.h\00", align 1
@__func__.table_index_fetch_tuple = private unnamed_addr constant [24 x i8] c"table_index_fetch_tuple\00", align 1

; Function Attrs: inlinehint nounwind uwtable
define internal zeroext i1 @table_index_fetch_tuple(ptr noundef %0, ptr noundef %1, ptr noundef %2, ptr noundef %3, ptr noundef %4, ptr noundef %5) #3 {
  %7 = alloca ptr, align 8
  %8 = alloca ptr, align 8
  %9 = alloca ptr, align 8
  %10 = alloca ptr, align 8
  %11 = alloca ptr, align 8
  %12 = alloca ptr, align 8
  store ptr %0, ptr %7, align 8
  store ptr %1, ptr %8, align 8
  store ptr %2, ptr %9, align 8
  store ptr %3, ptr %10, align 8
  store ptr %4, ptr %11, align 8
  store ptr %5, ptr %12, align 8
  %13 = load i32, ptr @CheckXidAlive, align 4
  %14 = icmp ne i32 %13, 0
  br i1 %14, label %15, label %19

15:                                               ; preds = %6
  %16 = load i8, ptr @bsysscan, align 1, !range !4, !noundef !5
  %17 = trunc i8 %16 to i1
  %18 = xor i1 %17, true
  br label %19

19:                                               ; preds = %15, %6
  %20 = phi i1 [ false, %6 ], [ %18, %15 ]
  %21 = zext i1 %20 to i32
  %22 = icmp ne i32 %21, 0
  %23 = zext i1 %22 to i32
  %24 = sext i32 %23 to i64
  %25 = call i64 @llvm.expect.i64(i64 %24, i64 0)
  %26 = icmp ne i64 %25, 0
  br i1 %26, label %27, label %37

27:                                               ; preds = %19
  br label %28

28:                                               ; preds = %27
  br i1 true, label %29, label %31

29:                                               ; preds = %28
  %30 = call zeroext i1 @errstart_cold(i32 noundef 21, ptr noundef null) #8
  br i1 %30, label %33, label %35

31:                                               ; preds = %28
  %32 = call zeroext i1 @errstart(i32 noundef 21, ptr noundef null)
  br i1 %32, label %33, label %35

33:                                               ; preds = %31, %29
  %34 = call i32 (ptr, ...) @errmsg_internal(ptr noundef @.str.17)
  call void @errfinish(ptr noundef @.str.18, i32 noundef 1259, ptr noundef @__func__.table_index_fetch_tuple)
  br label %35

35:                                               ; preds = %33, %31, %29
  unreachable

36:                                               ; No predecessors!
  br label %37

37:                                               ; preds = %36, %19
  %38 = load ptr, ptr %7, align 8
  %39 = getelementptr inbounds nuw %struct.IndexFetchTableData, ptr %38, i32 0, i32 0
  %40 = load ptr, ptr %39, align 8
  %41 = getelementptr inbounds nuw %struct.RelationData, ptr %40, i32 0, i32 47
  %42 = load ptr, ptr %41, align 8
  %43 = getelementptr inbounds nuw %struct.TableAmRoutine, ptr %42, i32 0, i32 14
  %44 = load ptr, ptr %43, align 8
  %45 = load ptr, ptr %7, align 8
  %46 = load ptr, ptr %8, align 8
  %47 = load ptr, ptr %9, align 8
  %48 = load ptr, ptr %10, align 8
  %49 = load ptr, ptr %11, align 8
  %50 = load ptr, ptr %12, align 8
  %51 = call zeroext i1 %44(ptr noundef %45, ptr noundef %46, ptr noundef %47, ptr noundef %48, ptr noundef %49, ptr noundef %50)
  ret i1 %51
}

; Function Attrs: nounwind uwtable
define dso_local zeroext i1 @index_fetch_heap(ptr noundef %0, ptr noundef %1) #0 {
  %3 = alloca ptr, align 8
  %4 = alloca ptr, align 8
  %5 = alloca i8, align 1
  %6 = alloca i8, align 1
  store ptr %0, ptr %3, align 8
  store ptr %1, ptr %4, align 8
  call void @llvm.lifetime.start.p0(i64 1, ptr %5) #7
  store i8 0, ptr %5, align 1
  call void @llvm.lifetime.start.p0(i64 1, ptr %6) #7
  %7 = load ptr, ptr %3, align 8
  %8 = getelementptr inbounds nuw %struct.IndexScanDescData, ptr %7, i32 0, i32 19
  %9 = load ptr, ptr %8, align 8
  %10 = load ptr, ptr %3, align 8
  %11 = getelementptr inbounds nuw %struct.IndexScanDescData, ptr %10, i32 0, i32 17
  %12 = load ptr, ptr %3, align 8
  %13 = getelementptr inbounds nuw %struct.IndexScanDescData, ptr %12, i32 0, i32 2
  %14 = load ptr, ptr %13, align 8
  %15 = load ptr, ptr %4, align 8
  %16 = load ptr, ptr %3, align 8
  %17 = getelementptr inbounds nuw %struct.IndexScanDescData, ptr %16, i32 0, i32 18
  %18 = call zeroext i1 @table_index_fetch_tuple(ptr noundef %9, ptr noundef %11, ptr noundef %14, ptr noundef %15, ptr noundef %17, ptr noundef %5)
  %19 = zext i1 %18 to i8
  store i8 %19, ptr %6, align 1
  %20 = load i8, ptr %6, align 1, !range !4, !noundef !5
  %21 = trunc i8 %20 to i1
  br i1 %21, label %22, label %62

22:                                               ; preds = %2
  br label %23

23:                                               ; preds = %22
  %24 = load ptr, ptr %3, align 8
  %25 = getelementptr inbounds nuw %struct.IndexScanDescData, ptr %24, i32 0, i32 1
  %26 = load ptr, ptr %25, align 8
  %27 = getelementptr inbounds nuw %struct.RelationData, ptr %26, i32 0, i32 68
  %28 = load ptr, ptr %27, align 8
  %29 = icmp ne ptr %28, null
  %30 = zext i1 %29 to i32
  %31 = icmp ne i32 %30, 0
  %32 = zext i1 %31 to i32
  %33 = sext i32 %32 to i64
  %34 = call i64 @llvm.expect.i64(i64 %33, i64 1)
  %35 = icmp ne i64 %34, 0
  br i1 %35, label %36, label %37

36:                                               ; preds = %23
  br i1 true, label %49, label %59

37:                                               ; preds = %23
  %38 = load ptr, ptr %3, align 8
  %39 = getelementptr inbounds nuw %struct.IndexScanDescData, ptr %38, i32 0, i32 1
  %40 = load ptr, ptr %39, align 8
  %41 = getelementptr inbounds nuw %struct.RelationData, ptr %40, i32 0, i32 67
  %42 = load i8, ptr %41, align 4, !range !4, !noundef !5
  %43 = trunc i8 %42 to i1
  br i1 %43, label %44, label %48

44:                                               ; preds = %37
  %45 = load ptr, ptr %3, align 8
  %46 = getelementptr inbounds nuw %struct.IndexScanDescData, ptr %45, i32 0, i32 1
  %47 = load ptr, ptr %46, align 8
  call void @pgstat_assoc_relation(ptr noundef %47)
  br i1 true, label %49, label %59

48:                                               ; preds = %37
  br i1 false, label %49, label %59

49:                                               ; preds = %48, %44, %36
  %50 = load ptr, ptr %3, align 8
  %51 = getelementptr inbounds nuw %struct.IndexScanDescData, ptr %50, i32 0, i32 1
  %52 = load ptr, ptr %51, align 8
  %53 = getelementptr inbounds nuw %struct.RelationData, ptr %52, i32 0, i32 68
  %54 = load ptr, ptr %53, align 8
  %55 = getelementptr inbounds nuw %struct.PgStat_TableStatus, ptr %54, i32 0, i32 3
  %56 = getelementptr inbounds nuw %struct.PgStat_TableCounts, ptr %55, i32 0, i32 2
  %57 = load i64, ptr %56, align 8
  %58 = add i64 %57, 1
  store i64 %58, ptr %56, align 8
  br label %59

59:                                               ; preds = %49, %48, %44, %36
  br label %60

60:                                               ; preds = %59
  br label %61

61:                                               ; preds = %60
  br label %62

62:                                               ; preds = %61, %2
  %63 = load ptr, ptr %3, align 8
  %64 = getelementptr inbounds nuw %struct.IndexScanDescData, ptr %63, i32 0, i32 11
  %65 = load i8, ptr %64, align 4, !range !4, !noundef !5
  %66 = trunc i8 %65 to i1
  br i1 %66, label %73, label %67

67:                                               ; preds = %62
  %68 = load i8, ptr %5, align 1, !range !4, !noundef !5
  %69 = trunc i8 %68 to i1
  %70 = load ptr, ptr %3, align 8
  %71 = getelementptr inbounds nuw %struct.IndexScanDescData, ptr %70, i32 0, i32 9
  %72 = zext i1 %69 to i8
  store i8 %72, ptr %71, align 2
  br label %73

73:                                               ; preds = %67, %62
  %74 = load i8, ptr %6, align 1, !range !4, !noundef !5
  %75 = trunc i8 %74 to i1
  call void @llvm.lifetime.end.p0(i64 1, ptr %6) #7
  call void @llvm.lifetime.end.p0(i64 1, ptr %5) #7
  ret i1 %75
}