; Function Attrs: nounwind uwtable
define dso_local noundef zeroext i1 @index_fetch_heap(ptr noundef %0, ptr noundef %1) local_unnamed_addr #0 {
  %3 = alloca i8, align 1
  call void @llvm.lifetime.start.p0(i64 1, ptr nonnull %3) #7
  store i8 0, ptr %3, align 1
  %4 = load i32, ptr @CheckXidAlive, align 4
  %5 = icmp eq i32 %4, 0
  %6 = load i8, ptr @bsysscan, align 1, !range !5
  %7 = trunc nuw i8 %6 to i1
  %.not7.i = select i1 %5, i1 true, i1 %7
  br i1 %.not7.i, label %table_index_fetch_tuple.exit, label %8, !prof !7

8:                                                ; preds = %2
  %9 = tail call zeroext i1 @errstart_cold(i32 noundef 21, ptr noundef null) #8
  tail call void @llvm.assume(i1 %9)
  %10 = tail call i32 (ptr, ...) @errmsg_internal(ptr noundef nonnull @.str.17) #7
  tail call void @errfinish(ptr noundef nonnull @.str.18, i32 noundef 1259, ptr noundef nonnull @__func__.table_index_fetch_tuple) #7
  unreachable

table_index_fetch_tuple.exit:                     ; preds = %2
  %11 = getelementptr inbounds nuw i8, ptr %0, i64 102
  %12 = getelementptr inbounds nuw i8, ptr %0, i64 16
  %13 = load ptr, ptr %12, align 8
  %14 = getelementptr inbounds nuw i8, ptr %0, i64 96
  %15 = getelementptr inbounds nuw i8, ptr %0, i64 104
  %16 = load ptr, ptr %15, align 8
  %17 = load ptr, ptr %16, align 8
  %18 = getelementptr inbounds nuw i8, ptr %17, i64 320
  %19 = load ptr, ptr %18, align 8
  %20 = getelementptr inbounds nuw i8, ptr %19, i64 112
  %21 = load ptr, ptr %20, align 8
  %22 = call zeroext i1 %21(ptr noundef nonnull %16, ptr noundef nonnull %14, ptr noundef %13, ptr noundef %1, ptr noundef nonnull %11, ptr noundef nonnull %3) #7
  br i1 %22, label %23, label %38

23:                                               ; preds = %table_index_fetch_tuple.exit
  %24 = getelementptr inbounds nuw i8, ptr %0, i64 8
  %25 = load ptr, ptr %24, align 8
  %26 = getelementptr inbounds nuw i8, ptr %25, i64 480
  %27 = load ptr, ptr %26, align 8
  %.not = icmp eq ptr %27, null
  br i1 %.not, label %28, label %33, !prof !4

28:                                               ; preds = %23
  %29 = getelementptr inbounds nuw i8, ptr %25, i64 476
  %30 = load i8, ptr %29, align 4, !range !5, !noundef !6
  %31 = trunc nuw i8 %30 to i1
  br i1 %31, label %32, label %38

32:                                               ; preds = %28
  call void @pgstat_assoc_relation(ptr noundef nonnull %25) #7
  %.pre = load ptr, ptr %24, align 8
  %.phi.trans.insert = getelementptr inbounds nuw i8, ptr %.pre, i64 480
  %.pre12 = load ptr, ptr %.phi.trans.insert, align 8
  br label %33

33:                                               ; preds = %23, %32
  %34 = phi ptr [ %27, %23 ], [ %.pre12, %32 ]
  %35 = getelementptr inbounds nuw i8, ptr %34, i64 32
  %36 = load i64, ptr %35, align 8
  %37 = add i64 %36, 1
  store i64 %37, ptr %35, align 8
  br label %38

38:                                               ; preds = %33, %28, %table_index_fetch_tuple.exit
  %39 = getelementptr inbounds nuw i8, ptr %0, i64 52
  %40 = load i8, ptr %39, align 4, !range !5, !noundef !6
  %41 = trunc nuw i8 %40 to i1
  br i1 %41, label %45, label %42

42:                                               ; preds = %38
  %43 = load i8, ptr %3, align 1, !range !5, !noundef !6
  %44 = getelementptr inbounds nuw i8, ptr %0, i64 50
  store i8 %43, ptr %44, align 2
  br label %45

45:                                               ; preds = %42, %38
  call void @llvm.lifetime.end.p0(i64 1, ptr nonnull %3) #7
  ret i1 %22
}